; Function Attrs: mustprogress nounwind uwtable
define dso_local void @_ZN4node12RealEnvStore3SetEPN2v87IsolateENS1_5LocalINS1_6StringEEES6_(ptr nocapture nonnull readnone align 8 %this, ptr noundef %isolate, ptr %property.coerce, ptr %value.coerce) unnamed_addr #3 align 2 {
entry:
  %key = alloca %"class.node::Utf8Value", align 8
  %val = alloca %"class.node::Utf8Value", align 8
  tail call void @uv_mutex_lock(ptr noundef nonnull @_ZN4node11per_process13env_var_mutexE) #20
  call void @_ZN4node9Utf8ValueC1EPN2v87IsolateENS1_5LocalINS1_5ValueEEE(ptr noundef nonnull align 8 dereferenceable(1048) %key, ptr noundef %isolate, ptr %property.coerce) #20
  call void @_ZN4node9Utf8ValueC1EPN2v87IsolateENS1_5LocalINS1_5ValueEEE(ptr noundef nonnull align 8 dereferenceable(1048) %val, ptr noundef %isolate, ptr %value.coerce) #20
  %buf_.i = getelementptr inbounds i8, ptr %key, i64 16
  %0 = load ptr, ptr %buf_.i, align 8
  %buf_.i3 = getelementptr inbounds i8, ptr %val, i64 16
  %1 = load ptr, ptr %buf_.i3, align 8
  %call23 = call i32 @uv_os_setenv(ptr noundef %0, ptr noundef %1) #20
  %2 = load i64, ptr %key, align 8
  %cmp.i = icmp eq i64 %2, 2
  br i1 %cmp.i, label %_ZNK4node16MaybeStackBufferIcLm1024EEixEm.exit.i, label %_ZN4node39DateTimeConfigurationChangeNotificationINS_9Utf8ValueEEEvPN2v87IsolateERKT_PKc.exit

_ZNK4node16MaybeStackBufferIcLm1024EEixEm.exit.i: ; preds = %entry
  %3 = load ptr, ptr %buf_.i, align 8
  %4 = load i8, ptr %3, align 1
  %cmp2.i = icmp eq i8 %4, 84
  br i1 %cmp2.i, label %_ZNK4node16MaybeStackBufferIcLm1024EEixEm.exit6.i, label %_ZN4node39DateTimeConfigurationChangeNotificationINS_9Utf8ValueEEEvPN2v87IsolateERKT_PKc.exit

_ZNK4node16MaybeStackBufferIcLm1024EEixEm.exit6.i: ; preds = %_ZNK4node16MaybeStackBufferIcLm1024EEixEm.exit.i
  %arrayidx.i.i = getelementptr inbounds i8, ptr %3, i64 1
  %5 = load i8, ptr %arrayidx.i.i, align 1
  %cmp6.i = icmp eq i8 %5, 90
  br i1 %cmp6.i, label %if.then.i, label %_ZN4node39DateTimeConfigurationChangeNotificationINS_9Utf8ValueEEEvPN2v87IsolateERKT_PKc.exit

if.then.i:                                        ; preds = %_ZNK4node16MaybeStackBufferIcLm1024EEixEm.exit6.i
  call void @tzset() #20
  call void @_ZN2v87Isolate39DateTimeConfigurationChangeNotificationENS0_17TimeZoneDetectionE(ptr noundef nonnull align 1 dereferenceable(1) %isolate, i32 noundef 1) #20
  br label %_ZN4node39DateTimeConfigurationChangeNotificationINS_9Utf8ValueEEEvPN2v87IsolateERKT_PKc.exit

_ZN4node39DateTimeConfigurationChangeNotificationINS_9Utf8ValueEEEvPN2v87IsolateERKT_PKc.exit: ; preds = %entry, %_ZNK4node16MaybeStackBufferIcLm1024EEixEm.exit.i, %_ZNK4node16MaybeStackBufferIcLm1024EEixEm.exit6.i, %if.then.i
  %6 = load ptr, ptr %buf_.i3, align 8
  %cmp.i.i.i.i = icmp ne ptr %6, null
  %buf_st_.i.i.i = getelementptr inbounds i8, ptr %val, i64 24
  %cmp.i.i.i = icmp ne ptr %6, %buf_st_.i.i.i
  %7 = select i1 %cmp.i.i.i.i, i1 %cmp.i.i.i, i1 false
  br i1 %7, label %if.then.i.i, label %_ZN4node9Utf8ValueD2Ev.exit

if.then.i.i:                                      ; preds = %_ZN4node39DateTimeConfigurationChangeNotificationINS_9Utf8ValueEEEvPN2v87IsolateERKT_PKc.exit
  call void @free(ptr noundef nonnull %6) #20
  br label %_ZN4node9Utf8ValueD2Ev.exit

_ZN4node9Utf8ValueD2Ev.exit:                      ; preds = %_ZN4node39DateTimeConfigurationChangeNotificationINS_9Utf8ValueEEEvPN2v87IsolateERKT_PKc.exit, %if.then.i.i
  %8 = load ptr, ptr %buf_.i, align 8
  %cmp.i.i.i.i6 = icmp ne ptr %8, null
  %buf_st_.i.i.i7 = getelementptr inbounds i8, ptr %key, i64 24
  %cmp.i.i.i8 = icmp ne ptr %8, %buf_st_.i.i.i7
  %9 = select i1 %cmp.i.i.i.i6, i1 %cmp.i.i.i8, i1 false
  br i1 %9, label %if.then.i.i9, label %_ZN4node9Utf8ValueD2Ev.exit10

if.then.i.i9:                                     ; preds = %_ZN4node9Utf8ValueD2Ev.exit
  call void @free(ptr noundef nonnull %8) #20
  br label %_ZN4node9Utf8ValueD2Ev.exit10

_ZN4node9Utf8ValueD2Ev.exit10:                    ; preds = %_ZN4node9Utf8ValueD2Ev.exit, %if.then.i.i9
  call void @uv_mutex_unlock(ptr noundef nonnull @_ZN4node11per_process13env_var_mutexE) #20
  ret void
}